target datalayout = "e-m:e-p270:32:32-p271:32:32-p272:64:64-i64:64-i128:128-f80:128-n8:16:32:64-S128"
target triple = "x86_64-pc-linux-gnu"

%struct.SN_env = type { ptr, i32, i32, i32, i32, i32, ptr, ptr }

; Function Attrs: nounwind uwtable
define internal i32 @r_undouble(ptr noundef %0) #0 {
  %2 = alloca i32, align 4
  %3 = alloca ptr, align 8
  %4 = alloca i32, align 4
  %5 = alloca i32, align 4
  %6 = alloca i32, align 4
  %7 = alloca i32, align 4
  store ptr %0, ptr %3, align 8
  call void @llvm.lifetime.start.p0(i64 4, ptr %4) #3
  %8 = load ptr, ptr %3, align 8
  %9 = getelementptr inbounds nuw %struct.SN_env, ptr %8, i32 0, i32 2
  %10 = load i32, ptr %9, align 4
  %11 = load ptr, ptr %3, align 8
  %12 = getelementptr inbounds nuw %struct.SN_env, ptr %11, i32 0, i32 1
  %13 = load i32, ptr %12, align 8
  %14 = sub i32 %10, %13
  store i32 %14, ptr %4, align 4
  %15 = load ptr, ptr %3, align 8
  %16 = getelementptr inbounds nuw %struct.SN_env, ptr %15, i32 0, i32 1
  %17 = load i32, ptr %16, align 8
  %18 = sub i32 %17, 1
  %19 = load ptr, ptr %3, align 8
  %20 = getelementptr inbounds nuw %struct.SN_env, ptr %19, i32 0, i32 3
  %21 = load i32, ptr %20, align 8
  %22 = icmp sle i32 %18, %21
  br i1 %22, label %53, label %23

23:                                               ; preds = %1
  %24 = load ptr, ptr %3, align 8
  %25 = getelementptr inbounds nuw %struct.SN_env, ptr %24, i32 0, i32 0
  %26 = load ptr, ptr %25, align 8
  %27 = load ptr, ptr %3, align 8
  %28 = getelementptr inbounds nuw %struct.SN_env, ptr %27, i32 0, i32 1
  %29 = load i32, ptr %28, align 8
  %30 = sub i32 %29, 1
  %31 = sext i32 %30 to i64
  %32 = getelementptr inbounds i8, ptr %26, i64 %31
  %33 = load i8, ptr %32, align 1
  %34 = zext i8 %33 to i32
  %35 = ashr i32 %34, 5
  %36 = icmp ne i32 %35, 3
  br i1 %36, label %53, label %37

37:                                               ; preds = %23
  %38 = load ptr, ptr %3, align 8
  %39 = getelementptr inbounds nuw %struct.SN_env, ptr %38, i32 0, i32 0
  %40 = load ptr, ptr %39, align 8
  %41 = load ptr, ptr %3, align 8
  %42 = getelementptr inbounds nuw %struct.SN_env, ptr %41, i32 0, i32 1
  %43 = load i32, ptr %42, align 8
  %44 = sub i32 %43, 1
  %45 = sext i32 %44 to i64
  %46 = getelementptr inbounds i8, ptr %40, i64 %45
  %47 = load i8, ptr %46, align 1
  %48 = zext i8 %47 to i32
  %49 = and i32 %48, 31
  %50 = ashr i32 1050640, %49
  %51 = and i32 %50, 1
  %52 = icmp ne i32 %51, 0
  br i1 %52, label %54, label %53

53:                                               ; preds = %37, %23, %1
  store i32 0, ptr %2, align 4
  store i32 1, ptr %5, align 4
  br label %67

54:                                               ; preds = %37
  %55 = load ptr, ptr %3, align 8
  %56 = call i32 @find_among_b(ptr noundef %55, ptr noundef @a_2, i32 noundef 3)
  %57 = icmp ne i32 %56, 0
  br i1 %57, label %59, label %58

58:                                               ; preds = %54
  store i32 0, ptr %2, align 4
  store i32 1, ptr %5, align 4
  br label %67

59:                                               ; preds = %54
  %60 = load ptr, ptr %3, align 8
  %61 = getelementptr inbounds nuw %struct.SN_env, ptr %60, i32 0, i32 2
  %62 = load i32, ptr %61, align 4
  %63 = load i32, ptr %4, align 4
  %64 = sub i32 %62, %63
  %65 = load ptr, ptr %3, align 8
  %66 = getelementptr inbounds nuw %struct.SN_env, ptr %65, i32 0, i32 1
  store i32 %64, ptr %66, align 8
  store i32 0, ptr %5, align 4
  br label %67

67:                                               ; preds = %59, %58, %53
  call void @llvm.lifetime.end.p0(i64 4, ptr %4) #3
  %68 = load i32, ptr %5, align 4
  switch i32 %68, label %112 [
    i32 0, label %69
    i32 1, label %110
  ]

69:                                               ; preds = %67
  %70 = load ptr, ptr %3, align 8
  %71 = getelementptr inbounds nuw %struct.SN_env, ptr %70, i32 0, i32 1
  %72 = load i32, ptr %71, align 8
  %73 = load ptr, ptr %3, align 8
  %74 = getelementptr inbounds nuw %struct.SN_env, ptr %73, i32 0, i32 5
  store i32 %72, ptr %74, align 8
  call void @llvm.lifetime.start.p0(i64 4, ptr %6) #3
  %75 = load ptr, ptr %3, align 8
  %76 = getelementptr inbounds nuw %struct.SN_env, ptr %75, i32 0, i32 0
  %77 = load ptr, ptr %76, align 8
  %78 = load ptr, ptr %3, align 8
  %79 = getelementptr inbounds nuw %struct.SN_env, ptr %78, i32 0, i32 1
  %80 = load i32, ptr %79, align 8
  %81 = load ptr, ptr %3, align 8
  %82 = getelementptr inbounds nuw %struct.SN_env, ptr %81, i32 0, i32 3
  %83 = load i32, ptr %82, align 8
  %84 = call i32 @skip_b_utf8(ptr noundef %77, i32 noundef %80, i32 noundef %83, i32 noundef 1)
  store i32 %84, ptr %6, align 4
  %85 = load i32, ptr %6, align 4
  %86 = icmp slt i32 %85, 0
  br i1 %86, label %87, label %88

87:                                               ; preds = %69
  store i32 0, ptr %2, align 4
  store i32 1, ptr %5, align 4
  br label %92

88:                                               ; preds = %69
  %89 = load i32, ptr %6, align 4
  %90 = load ptr, ptr %3, align 8
  %91 = getelementptr inbounds nuw %struct.SN_env, ptr %90, i32 0, i32 1
  store i32 %89, ptr %91, align 8
  store i32 0, ptr %5, align 4
  br label %92

92:                                               ; preds = %88, %87
  call void @llvm.lifetime.end.p0(i64 4, ptr %6) #3
  %93 = load i32, ptr %5, align 4
  switch i32 %93, label %112 [
    i32 0, label %94
    i32 1, label %110
  ]

94:                                               ; preds = %92
  %95 = load ptr, ptr %3, align 8
  %96 = getelementptr inbounds nuw %struct.SN_env, ptr %95, i32 0, i32 1
  %97 = load i32, ptr %96, align 8
  %98 = load ptr, ptr %3, align 8
  %99 = getelementptr inbounds nuw %struct.SN_env, ptr %98, i32 0, i32 4
  store i32 %97, ptr %99, align 4
  call void @llvm.lifetime.start.p0(i64 4, ptr %7) #3
  %100 = load ptr, ptr %3, align 8
  %101 = call i32 @slice_del(ptr noundef %100)
  store i32 %101, ptr %7, align 4
  %102 = load i32, ptr %7, align 4
  %103 = icmp slt i32 %102, 0
  br i1 %103, label %104, label %106

104:                                              ; preds = %94
  %105 = load i32, ptr %7, align 4
  store i32 %105, ptr %2, align 4
  store i32 1, ptr %5, align 4
  br label %107

106:                                              ; preds = %94
  store i32 0, ptr %5, align 4
  br label %107

107:                                              ; preds = %106, %104
  call void @llvm.lifetime.end.p0(i64 4, ptr %7) #3
  %108 = load i32, ptr %5, align 4
  switch i32 %108, label %112 [
    i32 0, label %109
    i32 1, label %110
  ]

109:                                              ; preds = %107
  store i32 1, ptr %2, align 4
  br label %110

110:                                              ; preds = %109, %107, %92, %67
  %111 = load i32, ptr %2, align 4
  ret i32 %111

112:                                              ; preds = %107, %92, %67
  unreachable
}